; Function Attrs: nounwind uwtable
define ptr @av_opt_child_next(ptr noundef %0, ptr noundef %1) local_unnamed_addr #2 {
  %3 = load ptr, ptr %0, align 8, !tbaa !4
  %4 = getelementptr inbounds nuw i8, ptr %3, i64 56
  %5 = load ptr, ptr %4, align 8, !tbaa !61
  %.not = icmp eq ptr %5, null
  br i1 %.not, label %8, label %6

6:                                                ; preds = %2
  %7 = tail call ptr %5(ptr noundef nonnull %0, ptr noundef %1) #18
  br label %8

8:                                                ; preds = %2, %6
  %.0 = phi ptr [ %7, %6 ], [ null, %2 ]
  ret ptr %.0
}